target datalayout = "e-m:e-p270:32:32-p271:32:32-p272:64:64-i64:64-i128:128-f80:128-n8:16:32:64-S128"
target triple = "x86_64-pc-linux-gnu"

%struct.stream_key = type { ptr, i32 }

@stream_hash = internal global ptr null, align 8

; Function Attrs: null_pointer_is_valid sspstrong uwtable
define internal ptr @stream_hash_lookup(ptr noundef %0, i32 noundef %1) #0 {
  %3 = alloca ptr, align 8
  %4 = alloca i32, align 4
  %5 = alloca %struct.stream_key, align 8
  store ptr %0, ptr %3, align 8
  store i32 %1, ptr %4, align 4
  call void @llvm.lifetime.start.p0(i64 16, ptr %5) #6
  %6 = load ptr, ptr %3, align 8
  %7 = getelementptr inbounds nuw %struct.stream_key, ptr %5, i32 0, i32 0
  store ptr %6, ptr %7, align 8
  %8 = load i32, ptr %4, align 4
  %9 = getelementptr inbounds nuw %struct.stream_key, ptr %5, i32 0, i32 1
  store i32 %8, ptr %9, align 8
  %10 = load ptr, ptr @stream_hash, align 8
  %11 = call ptr @g_hash_table_lookup(ptr noundef %10, ptr noundef %5)
  call void @llvm.lifetime.end.p0(i64 16, ptr %5) #6
  ret ptr %11
}

; Function Attrs: null_pointer_is_valid sspstrong uwtable
define ptr @find_stream(ptr noundef %0, i32 noundef %1) #0 {
  %3 = alloca ptr, align 8
  %4 = alloca i32, align 4
  store ptr %0, ptr %3, align 8
  store i32 %1, ptr %4, align 4
  %5 = load ptr, ptr %3, align 8
  %6 = load i32, ptr %4, align 4
  %7 = call ptr @stream_hash_lookup(ptr noundef %5, i32 noundef %6)
  ret ptr %7
}