; Function Attrs: null_pointer_is_valid sspstrong uwtable
define ptr @find_stream(ptr noundef %0, i32 noundef %1) local_unnamed_addr #0 {
  %3 = alloca %struct.stream_key, align 8
  call void @llvm.lifetime.start.p0(i64 16, ptr nonnull %3) #7
  store ptr %0, ptr %3, align 8
  %4 = getelementptr inbounds nuw i8, ptr %3, i64 8
  store i32 %1, ptr %4, align 8
  %5 = load ptr, ptr @stream_hash, align 8
  %6 = call ptr @g_hash_table_lookup(ptr noundef %5, ptr noundef nonnull %3)
  call void @llvm.lifetime.end.p0(i64 16, ptr nonnull %3) #7
  ret ptr %6
}